target datalayout = "e-m:e-p270:32:32-p271:32:32-p272:64:64-i64:64-i128:128-f80:128-n8:16:32:64-S128"
target triple = "x86_64-pc-linux-gnu"

; Function Attrs: nounwind uwtable
define hidden void @h248_param_bytes_item(ptr noundef %0, ptr noundef %1, ptr noundef %2, i32 noundef %3, ptr noundef %4, ptr noundef %5) #0 {
  %7 = alloca ptr, align 8
  %8 = alloca ptr, align 8
  %9 = alloca ptr, align 8
  %10 = alloca i32, align 4
  %11 = alloca ptr, align 8
  %12 = alloca ptr, align 8
  %13 = alloca i32, align 4
  store ptr %0, ptr %7, align 8
  store ptr %1, ptr %8, align 8
  store ptr %2, ptr %9, align 8
  store i32 %3, ptr %10, align 4
  store ptr %4, ptr %11, align 8
  store ptr %5, ptr %12, align 8
  %14 = load ptr, ptr %12, align 8
  %15 = icmp ne ptr %14, null
  br i1 %15, label %16, label %19

16:                                               ; preds = %6
  %17 = load ptr, ptr %12, align 8
  %18 = load i32, ptr %17, align 4
  br label %20

19:                                               ; preds = %6
  br label %20

20:                                               ; preds = %19, %16
  %21 = phi i32 [ %18, %16 ], [ -1, %19 ]
  store i32 %21, ptr %13, align 4
  %22 = load ptr, ptr %7, align 8
  %23 = load i32, ptr %10, align 4
  %24 = load ptr, ptr %8, align 8
  %25 = load i32, ptr %13, align 4
  %26 = call ptr @proto_tree_add_item(ptr noundef %22, i32 noundef %23, ptr noundef %24, i32 noundef 0, i32 noundef %25, i32 noundef 0)
  ret void
}